target datalayout = "e-m:e-p270:32:32-p271:32:32-p272:64:64-i64:64-i128:128-f80:128-n8:16:32:64-S128"
target triple = "x86_64-pc-linux-gnu"

%"class.icu_77::UnicodeString" = type { %"class.icu_77::Replaceable", %"union.icu_77::UnicodeString::StackBufferOrFields" }
%"class.icu_77::Replaceable" = type { %"class.icu_77::UObject" }
%"class.icu_77::UObject" = type { ptr }
%"union.icu_77::UnicodeString::StackBufferOrFields" = type { %struct.anon.0, [32 x i8] }
%struct.anon.0 = type { i16, i32, i32, ptr }
%"class.icu_77::NFRuleSet" = type <{ [8 x i8], %"class.icu_77::UnicodeString", %"class.icu_77::NFRuleList", [6 x ptr], ptr, %"class.icu_77::NFRuleList", i8, i8, i8, [5 x i8] }>
%"class.icu_77::NFRuleList" = type { ptr, i32, i32 }

; Function Attrs: mustprogress nounwind uwtable
define linkonce_odr void @_ZN6icu_7710NFRuleListD2Ev(ptr noundef nonnull align 8 dereferenceable(16) %0) unnamed_addr #6 comdat align 2 personality ptr @__gxx_personality_v0 {
  %2 = alloca ptr, align 8
  %3 = alloca i32, align 4
  store ptr %0, ptr %2, align 8, !tbaa !36
  %4 = load ptr, ptr %2, align 8
  %5 = getelementptr inbounds nuw %"class.icu_77::NFRuleList", ptr %4, i32 0, i32 0
  %6 = load ptr, ptr %5, align 8, !tbaa !38
  %7 = icmp ne ptr %6, null
  br i1 %7, label %8, label %32

8:                                                ; preds = %1
  call void @llvm.lifetime.start.p0(i64 4, ptr %3) #12
  store i32 0, ptr %3, align 4, !tbaa !12
  br label %9

9:                                                ; preds = %25, %8
  %10 = load i32, ptr %3, align 4, !tbaa !12
  %11 = getelementptr inbounds nuw %"class.icu_77::NFRuleList", ptr %4, i32 0, i32 1
  %12 = load i32, ptr %11, align 8, !tbaa !39
  %13 = icmp ult i32 %10, %12
  br i1 %13, label %15, label %14

14:                                               ; preds = %9
  call void @llvm.lifetime.end.p0(i64 4, ptr %3) #12
  br label %28

15:                                               ; preds = %9
  %16 = getelementptr inbounds nuw %"class.icu_77::NFRuleList", ptr %4, i32 0, i32 0
  %17 = load ptr, ptr %16, align 8, !tbaa !38
  %18 = load i32, ptr %3, align 4, !tbaa !12
  %19 = zext i32 %18 to i64
  %20 = getelementptr inbounds nuw ptr, ptr %17, i64 %19
  %21 = load ptr, ptr %20, align 8, !tbaa !26
  %22 = icmp eq ptr %21, null
  br i1 %22, label %24, label %23

23:                                               ; preds = %15
  call void @_ZN6icu_776NFRuleD1Ev(ptr noundef nonnull align 8 dereferenceable(112) %21) #12
  call void @_ZN6icu_777UMemorydlEPv(ptr noundef %21) #12
  br label %24

24:                                               ; preds = %23, %15
  br label %25

25:                                               ; preds = %24
  %26 = load i32, ptr %3, align 4, !tbaa !12
  %27 = add i32 %26, 1
  store i32 %27, ptr %3, align 4, !tbaa !12
  br label %9, !llvm.loop !50

28:                                               ; preds = %14
  %29 = getelementptr inbounds nuw %"class.icu_77::NFRuleList", ptr %4, i32 0, i32 0
  %30 = load ptr, ptr %29, align 8, !tbaa !38
  invoke void @uprv_free_77(ptr noundef %30)
          to label %31 unwind label %33

31:                                               ; preds = %28
  br label %32

32:                                               ; preds = %31, %1
  ret void

33:                                               ; preds = %28
  %34 = landingpad { ptr, i32 }
          catch ptr null
  %35 = extractvalue { ptr, i32 } %34, 0
  call void @__clang_call_terminate(ptr %35) #14
  unreachable
}

; Function Attrs: mustprogress nounwind uwtable
define void @_ZN6icu_779NFRuleSetD2Ev(ptr noundef nonnull align 8 dereferenceable(163) %0) unnamed_addr #6 align 2 {
  %2 = alloca ptr, align 8
  %3 = alloca i32, align 4
  store ptr %0, ptr %2, align 8, !tbaa !3
  %4 = load ptr, ptr %2, align 8
  call void @llvm.lifetime.start.p0(i64 4, ptr %3) #12
  store i32 0, ptr %3, align 4, !tbaa !12
  br label %5

5:                                                ; preds = %28, %1
  %6 = load i32, ptr %3, align 4, !tbaa !12
  %7 = icmp slt i32 %6, 6
  br i1 %7, label %9, label %8

8:                                                ; preds = %5
  call void @llvm.lifetime.end.p0(i64 4, ptr %3) #12
  br label %31

9:                                                ; preds = %5
  %10 = load i32, ptr %3, align 4, !tbaa !12
  %11 = icmp ne i32 %10, 1
  br i1 %11, label %12, label %27

12:                                               ; preds = %9
  %13 = load i32, ptr %3, align 4, !tbaa !12
  %14 = icmp ne i32 %13, 2
  br i1 %14, label %15, label %27

15:                                               ; preds = %12
  %16 = load i32, ptr %3, align 4, !tbaa !12
  %17 = icmp ne i32 %16, 3
  br i1 %17, label %18, label %27

18:                                               ; preds = %15
  %19 = getelementptr inbounds nuw %"class.icu_77::NFRuleSet", ptr %4, i32 0, i32 3
  %20 = load i32, ptr %3, align 4, !tbaa !12
  %21 = sext i32 %20 to i64
  %22 = getelementptr inbounds [6 x ptr], ptr %19, i64 0, i64 %21
  %23 = load ptr, ptr %22, align 8, !tbaa !26
  %24 = icmp eq ptr %23, null
  br i1 %24, label %26, label %25

25:                                               ; preds = %18
  call void @_ZN6icu_776NFRuleD1Ev(ptr noundef nonnull align 8 dereferenceable(112) %23) #12
  call void @_ZN6icu_777UMemorydlEPv(ptr noundef %23) #12
  br label %26

26:                                               ; preds = %25, %18
  br label %27

27:                                               ; preds = %26, %15, %12, %9
  br label %28

28:                                               ; preds = %27
  %29 = load i32, ptr %3, align 4, !tbaa !12
  %30 = add nsw i32 %29, 1
  store i32 %30, ptr %3, align 4, !tbaa !12
  br label %5, !llvm.loop !67

31:                                               ; preds = %8
  %32 = getelementptr inbounds nuw %"class.icu_77::NFRuleSet", ptr %4, i32 0, i32 5
  call void @_ZN6icu_7710NFRuleListD2Ev(ptr noundef nonnull align 8 dereferenceable(16) %32) #12
  %33 = getelementptr inbounds nuw %"class.icu_77::NFRuleSet", ptr %4, i32 0, i32 2
  call void @_ZN6icu_7710NFRuleListD2Ev(ptr noundef nonnull align 8 dereferenceable(16) %33) #12
  %34 = getelementptr inbounds nuw %"class.icu_77::NFRuleSet", ptr %4, i32 0, i32 1
  call void @_ZN6icu_7713UnicodeStringD1Ev(ptr noundef nonnull align 8 dereferenceable(64) %34) #12
  ret void
}