; Function Attrs: mustprogress nounwind uwtable
define void @_ZN6icu_779NFRuleSetD2Ev(ptr noundef nonnull align 8 dereferenceable(163) %0) unnamed_addr #4 align 2 personality ptr @__gxx_personality_v0 {
  %2 = getelementptr inbounds nuw i8, ptr %0, i64 88
  br label %41

3:                                                ; preds = %49
  %4 = getelementptr inbounds nuw i8, ptr %0, i64 144
  %5 = load ptr, ptr %4, align 8, !tbaa !19
  %.not.i = icmp eq ptr %5, null
  br i1 %.not.i, label %_ZN6icu_7710NFRuleListD2Ev.exit, label %.preheader.i

.preheader.i:                                     ; preds = %3
  %6 = getelementptr inbounds nuw i8, ptr %0, i64 152
  %7 = load i32, ptr %6, align 8, !tbaa !20
  %.not5.i = icmp eq i32 %7, 0
  br i1 %.not5.i, label %._crit_edge.i, label %.lr.ph.i

._crit_edge.loopexit.i:                           ; preds = %15
  %.pre7.i = load ptr, ptr %4, align 8, !tbaa !19
  br label %._crit_edge.i

._crit_edge.i:                                    ; preds = %._crit_edge.loopexit.i, %.preheader.i
  %8 = phi ptr [ %.pre7.i, %._crit_edge.loopexit.i ], [ %5, %.preheader.i ]
  invoke void @uprv_free_77(ptr noundef %8)
          to label %_ZN6icu_7710NFRuleListD2Ev.exit unwind label %19

.lr.ph.i:                                         ; preds = %.preheader.i, %15
  %9 = phi i32 [ %16, %15 ], [ %7, %.preheader.i ]
  %indvars.iv.i = phi i64 [ %indvars.iv.next.i, %15 ], [ 0, %.preheader.i ]
  %10 = load ptr, ptr %4, align 8, !tbaa !19
  %11 = getelementptr inbounds nuw ptr, ptr %10, i64 %indvars.iv.i
  %12 = load ptr, ptr %11, align 8, !tbaa !25
  %13 = icmp eq ptr %12, null
  br i1 %13, label %15, label %14

14:                                               ; preds = %.lr.ph.i
  tail call void @_ZN6icu_776NFRuleD1Ev(ptr noundef nonnull align 8 dereferenceable(112) %12) #15
  tail call void @_ZN6icu_777UMemorydlEPv(ptr noundef nonnull %12) #15
  %.pre.i = load i32, ptr %6, align 8, !tbaa !20
  br label %15

15:                                               ; preds = %14, %.lr.ph.i
  %16 = phi i32 [ %9, %.lr.ph.i ], [ %.pre.i, %14 ]
  %indvars.iv.next.i = add nuw nsw i64 %indvars.iv.i, 1
  %17 = zext i32 %16 to i64
  %18 = icmp samesign ult i64 %indvars.iv.next.i, %17
  br i1 %18, label %.lr.ph.i, label %._crit_edge.loopexit.i, !llvm.loop !37

19:                                               ; preds = %._crit_edge.i
  %20 = landingpad { ptr, i32 }
          catch ptr null
  %21 = extractvalue { ptr, i32 } %20, 0
  tail call void @__clang_call_terminate(ptr %21) #16
  unreachable

_ZN6icu_7710NFRuleListD2Ev.exit:                  ; preds = %3, %._crit_edge.i
  %22 = getelementptr inbounds nuw i8, ptr %0, i64 72
  %23 = load ptr, ptr %22, align 8, !tbaa !19
  %.not.i10 = icmp eq ptr %23, null
  br i1 %.not.i10, label %_ZN6icu_7710NFRuleListD2Ev.exit20, label %.preheader.i11

.preheader.i11:                                   ; preds = %_ZN6icu_7710NFRuleListD2Ev.exit
  %24 = getelementptr inbounds nuw i8, ptr %0, i64 80
  %25 = load i32, ptr %24, align 8, !tbaa !20
  %.not5.i12 = icmp eq i32 %25, 0
  br i1 %.not5.i12, label %._crit_edge.i19, label %.lr.ph.i13

._crit_edge.loopexit.i17:                         ; preds = %33
  %.pre7.i18 = load ptr, ptr %22, align 8, !tbaa !19
  br label %._crit_edge.i19

._crit_edge.i19:                                  ; preds = %._crit_edge.loopexit.i17, %.preheader.i11
  %26 = phi ptr [ %.pre7.i18, %._crit_edge.loopexit.i17 ], [ %23, %.preheader.i11 ]
  invoke void @uprv_free_77(ptr noundef %26)
          to label %_ZN6icu_7710NFRuleListD2Ev.exit20 unwind label %37

.lr.ph.i13:                                       ; preds = %.preheader.i11, %33
  %27 = phi i32 [ %34, %33 ], [ %25, %.preheader.i11 ]
  %indvars.iv.i14 = phi i64 [ %indvars.iv.next.i16, %33 ], [ 0, %.preheader.i11 ]
  %28 = load ptr, ptr %22, align 8, !tbaa !19
  %29 = getelementptr inbounds nuw ptr, ptr %28, i64 %indvars.iv.i14
  %30 = load ptr, ptr %29, align 8, !tbaa !25
  %31 = icmp eq ptr %30, null
  br i1 %31, label %33, label %32

32:                                               ; preds = %.lr.ph.i13
  tail call void @_ZN6icu_776NFRuleD1Ev(ptr noundef nonnull align 8 dereferenceable(112) %30) #15
  tail call void @_ZN6icu_777UMemorydlEPv(ptr noundef nonnull %30) #15
  %.pre.i15 = load i32, ptr %24, align 8, !tbaa !20
  br label %33

33:                                               ; preds = %32, %.lr.ph.i13
  %34 = phi i32 [ %27, %.lr.ph.i13 ], [ %.pre.i15, %32 ]
  %indvars.iv.next.i16 = add nuw nsw i64 %indvars.iv.i14, 1
  %35 = zext i32 %34 to i64
  %36 = icmp samesign ult i64 %indvars.iv.next.i16, %35
  br i1 %36, label %.lr.ph.i13, label %._crit_edge.loopexit.i17, !llvm.loop !37

37:                                               ; preds = %._crit_edge.i19
  %38 = landingpad { ptr, i32 }
          catch ptr null
  %39 = extractvalue { ptr, i32 } %38, 0
  tail call void @__clang_call_terminate(ptr %39) #16
  unreachable

_ZN6icu_7710NFRuleListD2Ev.exit20:                ; preds = %_ZN6icu_7710NFRuleListD2Ev.exit, %._crit_edge.i19
  %40 = getelementptr inbounds nuw i8, ptr %0, i64 8
  tail call void @_ZN6icu_7713UnicodeStringD1Ev(ptr noundef nonnull align 8 dereferenceable(64) %40) #15
  ret void

41:                                               ; preds = %1, %49
  %indvars.iv = phi i64 [ 0, %1 ], [ %indvars.iv.next, %49 ]
  %42 = trunc i64 %indvars.iv to i32
  %43 = add i32 %42, -4
  %or.cond3 = icmp ult i32 %43, -3
  br i1 %or.cond3, label %44, label %49

44:                                               ; preds = %41
  %45 = getelementptr inbounds nuw [6 x ptr], ptr %2, i64 0, i64 %indvars.iv
  %46 = load ptr, ptr %45, align 8, !tbaa !25
  %47 = icmp eq ptr %46, null
  br i1 %47, label %49, label %48

48:                                               ; preds = %44
  tail call void @_ZN6icu_776NFRuleD1Ev(ptr noundef nonnull align 8 dereferenceable(112) %46) #15
  tail call void @_ZN6icu_777UMemorydlEPv(ptr noundef nonnull %46) #15
  br label %49

49:                                               ; preds = %41, %48, %44
  %indvars.iv.next = add nuw nsw i64 %indvars.iv, 1
  %exitcond.not = icmp eq i64 %indvars.iv.next, 6
  br i1 %exitcond.not, label %3, label %41, !llvm.loop !49
}